target datalayout = "e-m:e-p270:32:32-p271:32:32-p272:64:64-i64:64-i128:128-f80:128-n8:16:32:64-S128"
target triple = "x86_64-unknown-linux-gnu"

%struct.redisServer = type { i32, i64, ptr, ptr, ptr, i32, i32, i32, i32, i32, ptr, ptr, ptr, ptr, ptr, ptr, i32, i32, i64, i32, i32, i32, i32, ptr, i32, i32, [41 x i8], i32, i64, i32, i32, i32, ptr, ptr, i32, i32, i64, ptr, ptr, ptr, ptr, [2 x i32], i32, i32, i32, i32, i32, [16 x ptr], i32, ptr, ptr, i32, [8 x %struct.connListener], i32, %struct.connListener, ptr, ptr, ptr, ptr, ptr, ptr, ptr, ptr, ptr, ptr, i32, ptr, i32, ptr, [3 x %struct.pause_event], [256 x i8], ptr, i64, i32, i32, i32, i32, i64, i32, i32, i32, i32, i32, i64, i64, i64, i64, i64, i64, i64, i64, i64, double, i64, i64, i64, i64, i64, i64, i64, i64, i64, i64, i64, i64, i64, i64, i64, i64, i64, i64, i64, i64, double, i64, i64, i64, i64, i64, ptr, i64, i64, i64, %struct.malloc_stats, i64, i64, i64, i64, i64, i64, i64, i64, i64, i64, i64, i64, double, [4 x i64], i64, i64, i64, i64, i64, i64, i64, i64, i64, i64, [7 x %struct.anon], i64, i64, i64, i64, i64, i64, [4 x %struct.durationStats], i32, i32, i32, i32, i32, i32, i32, i32, i32, i32, i64, i32, i32, i32, i32, i64, i64, i32, i32, i32, i32, i32, ptr, [3 x %struct.clientBufferLimitsConfig], i32, i32, ptr, i32, i32, i32, i32, ptr, ptr, i32, i32, i64, i64, i64, i64, i64, i32, i32, ptr, i32, i32, i64, i64, i64, i64, i64, i32, i32, i64, i32, i32, i32, i32, i32, i32, i32, i32, ptr, i32, i64, i64, i64, i64, ptr, i32, ptr, i32, i32, i32, i64, i64, i64, i64, i32, i32, i32, i32, i32, i32, ptr, i32, i32, ptr, i32, i32, i32, [2 x i32], i32, %struct.redisOpArray, i32, ptr, i32, ptr, i32, i32, i32, i32, i32, i32, i32, [41 x i8], [41 x i8], i64, i64, i64, i64, i32, i32, ptr, i64, i64, i64, i32, i32, i32, i32, i32, i32, i32, i64, ptr, ptr, ptr, ptr, i32, i32, ptr, ptr, i32, i32, i64, i64, i64, ptr, i32, ptr, i64, i32, i32, i32, i64, i32, i32, i32, i32, ptr, i32, i32, [41 x i8], i64, i32, ptr, i32, i32, i64, i64, i32, i32, i32, i32, i32, i64, [3 x i32], i32, i32, i32, [9 x i32], ptr, ptr, i32, i64, ptr, ptr, i32, i32, i32, i32, i64, i64, i64, i64, i64, i64, i64, i64, i64, i64, i32, i32, i64, i64, i32, i64, i64, i64, i64, i64, ptr, ptr, i32, ptr, i32, i32, i32, i64, i64, ptr, ptr, i32, i32, i32, i32, i32, ptr, ptr, ptr, i32, i32, i32, i32, i32, i32, i32, i64, i32, i64, i32, i32, i32, i32, i32, i32, i32, i64, ptr, ptr, i64, ptr, i32, %struct.aclInfo, i32, i64, i32, i32, i32, %struct.redisTLSContextConfig, ptr, ptr, ptr, ptr, ptr, i64, i32, ptr, i32, i32, i32, i64, i32, ptr }
%struct.connListener = type { [16 x i32], i32, ptr, i32, i32, ptr, ptr }
%struct.pause_event = type { i32, i64 }
%struct.malloc_stats = type { i64, i64, i64, i64, i64 }
%struct.anon = type { i64, i64, [16 x i64], i32 }
%struct.durationStats = type { i64, i64, i64 }
%struct.clientBufferLimitsConfig = type { i64, i64, i64 }
%struct.redisOpArray = type { ptr, i32, i32 }
%struct.aclInfo = type { i64, i64, i64, i64 }
%struct.redisTLSContextConfig = type { ptr, ptr, ptr, ptr, ptr, ptr, ptr, ptr, ptr, ptr, ptr, ptr, i32, i32, i32, i32 }
%struct.listNode = type { ptr, ptr, ptr }
%struct.replBacklog = type { ptr, i64, ptr, i64, i64 }
%struct.list = type { ptr, ptr, ptr, ptr, ptr, i64 }
%struct.replBufBlock = type { i32, i64, i64, i64, i64, [0 x i8] }

@server = external global %struct.redisServer, align 8
@.str.3 = private unnamed_addr constant [14 x i8] c"replication.c\00", align 1
@.str.4 = private unnamed_addr constant [31 x i8] c"listLength(server.slaves) == 0\00", align 1
@.str.5 = private unnamed_addr constant [17 x i8] c"o->refcount == 1\00", align 1

; Function Attrs: nounwind uwtable
define dso_local void @resetReplicationBuffer() #0 {
entry:
  store i64 0, ptr getelementptr inbounds (%struct.redisServer, ptr @server, i32 0, i32 279), align 8
  %call = call ptr @listCreate()
  store ptr %call, ptr getelementptr inbounds (%struct.redisServer, ptr @server, i32 0, i32 280), align 8
  %0 = load ptr, ptr getelementptr inbounds (%struct.redisServer, ptr @server, i32 0, i32 280), align 8
  %free = getelementptr inbounds %struct.list, ptr %0, i32 0, i32 3
  store ptr @zfree, ptr %free, align 8
  ret void
}

; Function Attrs: nounwind uwtable
define dso_local void @freeReplicationBacklog() #0 {
entry:
  %o = alloca ptr, align 8
  %0 = load ptr, ptr getelementptr inbounds (%struct.redisServer, ptr @server, i32 0, i32 59), align 8
  %len = getelementptr inbounds %struct.list, ptr %0, i32 0, i32 5
  %1 = load i64, ptr %len, align 8
  %cmp = icmp eq i64 %1, 0
  %lnot = xor i1 %cmp, true
  %lnot1 = xor i1 %lnot, true
  %lnot.ext = zext i1 %lnot1 to i32
  %conv = sext i32 %lnot.ext to i64
  %tobool = icmp ne i64 %conv, 0
  br i1 %tobool, label %cond.true, label %cond.false

cond.true:                                        ; preds = %entry
  br label %cond.end

cond.false:                                       ; preds = %entry
  call void @_serverAssert(ptr noundef @.str.4, ptr noundef @.str.3, i32 noundef 147)
  call void @abort() #13
  unreachable

2:                                                ; No predecessors!
  br label %cond.end

cond.end:                                         ; preds = %2, %cond.true
  %3 = load ptr, ptr getelementptr inbounds (%struct.redisServer, ptr @server, i32 0, i32 268), align 8
  %cmp2 = icmp eq ptr %3, null
  br i1 %cmp2, label %if.then, label %if.end

if.then:                                          ; preds = %cond.end
  br label %return

if.end:                                           ; preds = %cond.end
  %4 = load ptr, ptr getelementptr inbounds (%struct.redisServer, ptr @server, i32 0, i32 268), align 8
  %ref_repl_buf_node = getelementptr inbounds %struct.replBacklog, ptr %4, i32 0, i32 0
  %5 = load ptr, ptr %ref_repl_buf_node, align 8
  %tobool4 = icmp ne ptr %5, null
  br i1 %tobool4, label %if.then5, label %if.end19

if.then5:                                         ; preds = %if.end
  %6 = load ptr, ptr getelementptr inbounds (%struct.redisServer, ptr @server, i32 0, i32 268), align 8
  %ref_repl_buf_node6 = getelementptr inbounds %struct.replBacklog, ptr %6, i32 0, i32 0
  %7 = load ptr, ptr %ref_repl_buf_node6, align 8
  %value = getelementptr inbounds %struct.listNode, ptr %7, i32 0, i32 2
  %8 = load ptr, ptr %value, align 8
  store ptr %8, ptr %o, align 8
  %9 = load ptr, ptr %o, align 8
  %refcount = getelementptr inbounds %struct.replBufBlock, ptr %9, i32 0, i32 0
  %10 = load i32, ptr %refcount, align 8
  %cmp7 = icmp eq i32 %10, 1
  %lnot9 = xor i1 %cmp7, true
  %lnot11 = xor i1 %lnot9, true
  %lnot.ext12 = zext i1 %lnot11 to i32
  %conv13 = sext i32 %lnot.ext12 to i64
  %tobool14 = icmp ne i64 %conv13, 0
  br i1 %tobool14, label %cond.true15, label %cond.false16

cond.true15:                                      ; preds = %if.then5
  br label %cond.end17

cond.false16:                                     ; preds = %if.then5
  call void @_serverAssert(ptr noundef @.str.5, ptr noundef @.str.3, i32 noundef 154)
  call void @abort() #13
  unreachable

11:                                               ; No predecessors!
  br label %cond.end17

cond.end17:                                       ; preds = %11, %cond.true15
  %12 = load ptr, ptr %o, align 8
  %refcount18 = getelementptr inbounds %struct.replBufBlock, ptr %12, i32 0, i32 0
  %13 = load i32, ptr %refcount18, align 8
  %dec = add nsw i32 %13, -1
  store i32 %dec, ptr %refcount18, align 8
  br label %if.end19

if.end19:                                         ; preds = %cond.end17, %if.end
  %14 = load ptr, ptr getelementptr inbounds (%struct.redisServer, ptr @server, i32 0, i32 280), align 8
  %15 = load ptr, ptr getelementptr inbounds (%struct.redisServer, ptr @server, i32 0, i32 268), align 8
  %blocks_index = getelementptr inbounds %struct.replBacklog, ptr %15, i32 0, i32 2
  %16 = load ptr, ptr %blocks_index, align 8
  call void @freeReplicationBacklogRefMemAsync(ptr noundef %14, ptr noundef %16)
  call void @resetReplicationBuffer()
  %17 = load ptr, ptr getelementptr inbounds (%struct.redisServer, ptr @server, i32 0, i32 268), align 8
  call void @zfree(ptr noundef %17)
  store ptr null, ptr getelementptr inbounds (%struct.redisServer, ptr @server, i32 0, i32 268), align 8
  br label %return

return:                                           ; preds = %if.end19, %if.then
  ret void
}