; Function Attrs: nounwind uwtable
define dso_local void @freeReplicationBacklog() local_unnamed_addr #0 {
entry:
  %0 = load ptr, ptr getelementptr inbounds (%struct.redisServer, ptr @server, i64 0, i32 59), align 8
  %len = getelementptr inbounds i8, ptr %0, i64 40
  %1 = load i64, ptr %len, align 8
  %cmp = icmp eq i64 %1, 0
  br i1 %cmp, label %cond.end, label %cond.false

cond.false:                                       ; preds = %entry
  tail call void @_serverAssert(ptr noundef nonnull @.str.4, ptr noundef nonnull @.str.3, i32 noundef 147) #21
  tail call void @abort() #24
  unreachable

cond.end:                                         ; preds = %entry
  %2 = load ptr, ptr getelementptr inbounds (%struct.redisServer, ptr @server, i64 0, i32 268), align 8
  %cmp2 = icmp eq ptr %2, null
  br i1 %cmp2, label %return, label %if.end

if.end:                                           ; preds = %cond.end
  %3 = load ptr, ptr %2, align 8
  %tobool4.not = icmp eq ptr %3, null
  br i1 %tobool4.not, label %if.end19, label %if.then5

if.then5:                                         ; preds = %if.end
  %value = getelementptr inbounds i8, ptr %3, i64 16
  %4 = load ptr, ptr %value, align 8
  %5 = load i32, ptr %4, align 8
  %cmp7 = icmp eq i32 %5, 1
  br i1 %cmp7, label %cond.end17, label %cond.false16

cond.false16:                                     ; preds = %if.then5
  tail call void @_serverAssert(ptr noundef nonnull @.str.5, ptr noundef nonnull @.str.3, i32 noundef 154) #21
  tail call void @abort() #24
  unreachable

cond.end17:                                       ; preds = %if.then5
  store i32 0, ptr %4, align 8
  %.pre = load ptr, ptr getelementptr inbounds (%struct.redisServer, ptr @server, i64 0, i32 268), align 8
  br label %if.end19

if.end19:                                         ; preds = %cond.end17, %if.end
  %6 = phi ptr [ %.pre, %cond.end17 ], [ %2, %if.end ]
  %7 = load ptr, ptr getelementptr inbounds (%struct.redisServer, ptr @server, i64 0, i32 280), align 8
  %blocks_index = getelementptr inbounds i8, ptr %6, i64 16
  %8 = load ptr, ptr %blocks_index, align 8
  tail call void @freeReplicationBacklogRefMemAsync(ptr noundef %7, ptr noundef %8) #21
  store i64 0, ptr getelementptr inbounds (%struct.redisServer, ptr @server, i64 0, i32 279), align 8
  %call.i = tail call ptr @listCreate() #21
  store ptr %call.i, ptr getelementptr inbounds (%struct.redisServer, ptr @server, i64 0, i32 280), align 8
  %free.i = getelementptr inbounds i8, ptr %call.i, i64 24
  store ptr @zfree, ptr %free.i, align 8
  %9 = load ptr, ptr getelementptr inbounds (%struct.redisServer, ptr @server, i64 0, i32 268), align 8
  tail call void @zfree(ptr noundef %9) #21
  store ptr null, ptr getelementptr inbounds (%struct.redisServer, ptr @server, i64 0, i32 268), align 8
  br label %return

return:                                           ; preds = %cond.end, %if.end19
  ret void
}